target datalayout = "e-m:e-p270:32:32-p271:32:32-p272:64:64-i64:64-i128:128-f80:128-n8:16:32:64-S128"
target triple = "x86_64-pc-linux-gnu"

%class.Sample = type { ptr, ptr, ptr, ptr, ptr, i8, float, float, float, float, float, float, float, float, float, float, float, float, float, i32, i8, i8, i8, ptr, [9 x ptr], ptr, %class.SampleDebugDraw }
%class.SampleDebugDraw = type { %class.DebugDrawGL }
%class.DebugDrawGL = type { %struct.duDebugDraw }
%struct.duDebugDraw = type { ptr }
%class.InputGeom = type { ptr, ptr, [3 x float], [3 x float], %struct.BuildSettings, i8, [1536 x float], [256 x float], [256 x i8], [256 x i8], [256 x i16], [256 x i32], i32, [256 x %struct.ConvexVolume], i32 }
%struct.BuildSettings = type { float, float, float, float, float, float, float, float, float, float, float, float, float, i32, [3 x float], [3 x float], float }
%struct.ConvexVolume = type { [36 x float], float, float, i32, i32 }
%class.rcMeshLoaderObj = type { %"class.std::__cxx11::basic_string", float, ptr, ptr, ptr, i32, i32 }
%"class.std::__cxx11::basic_string" = type { %"struct.std::__cxx11::basic_string<char>::_Alloc_hider", i64, %union.anon }
%"struct.std::__cxx11::basic_string<char>::_Alloc_hider" = type { ptr }
%union.anon = type { i64, [8 x i8] }

; Function Attrs: mustprogress nounwind uwtable
define linkonce_odr dso_local noundef i32 @_Z6duRGBAiiii(i32 noundef %0, i32 noundef %1, i32 noundef %2, i32 noundef %3) #0 comdat {
  %5 = alloca i32, align 4
  %6 = alloca i32, align 4
  %7 = alloca i32, align 4
  %8 = alloca i32, align 4
  store i32 %0, ptr %5, align 4
  store i32 %1, ptr %6, align 4
  store i32 %2, ptr %7, align 4
  store i32 %3, ptr %8, align 4
  %9 = load i32, ptr %5, align 4
  %10 = load i32, ptr %6, align 4
  %11 = shl i32 %10, 8
  %12 = or i32 %9, %11
  %13 = load i32, ptr %7, align 4
  %14 = shl i32 %13, 16
  %15 = or i32 %12, %14
  %16 = load i32, ptr %8, align 4
  %17 = shl i32 %16, 24
  %18 = or i32 %15, %17
  ret i32 %18
}

; Function Attrs: mustprogress nounwind uwtable
define linkonce_odr dso_local noundef ptr @_ZNK9InputGeom16getMeshBoundsMaxEv(ptr noundef nonnull align 8 dereferenceable(50312) %0) #0 comdat align 2 {
  %2 = alloca ptr, align 8
  store ptr %0, ptr %2, align 8
  %3 = load ptr, ptr %2, align 8
  %4 = getelementptr inbounds %class.InputGeom, ptr %3, i32 0, i32 3
  %5 = getelementptr inbounds [3 x float], ptr %4, i64 0, i64 0
  ret ptr %5
}

; Function Attrs: mustprogress nounwind uwtable
define linkonce_odr dso_local noundef ptr @_ZNK9InputGeom16getMeshBoundsMinEv(ptr noundef nonnull align 8 dereferenceable(50312) %0) #0 comdat align 2 {
  %2 = alloca ptr, align 8
  store ptr %0, ptr %2, align 8
  %3 = load ptr, ptr %2, align 8
  %4 = getelementptr inbounds %class.InputGeom, ptr %3, i32 0, i32 2
  %5 = getelementptr inbounds [3 x float], ptr %4, i64 0, i64 0
  ret ptr %5
}

; Function Attrs: mustprogress nounwind uwtable
define linkonce_odr dso_local noundef i32 @_ZNK15rcMeshLoaderObj11getTriCountEv(ptr noundef nonnull align 8 dereferenceable(72) %0) #0 comdat align 2 {
  %2 = alloca ptr, align 8
  store ptr %0, ptr %2, align 8
  %3 = load ptr, ptr %2, align 8
  %4 = getelementptr inbounds %class.rcMeshLoaderObj, ptr %3, i32 0, i32 6
  %5 = load i32, ptr %4, align 4
  ret i32 %5
}

; Function Attrs: mustprogress nounwind uwtable
define linkonce_odr dso_local noundef ptr @_ZNK15rcMeshLoaderObj10getNormalsEv(ptr noundef nonnull align 8 dereferenceable(72) %0) #0 comdat align 2 {
  %2 = alloca ptr, align 8
  store ptr %0, ptr %2, align 8
  %3 = load ptr, ptr %2, align 8
  %4 = getelementptr inbounds %class.rcMeshLoaderObj, ptr %3, i32 0, i32 4
  %5 = load ptr, ptr %4, align 8
  ret ptr %5
}

; Function Attrs: mustprogress nounwind uwtable
define linkonce_odr dso_local noundef ptr @_ZNK15rcMeshLoaderObj7getTrisEv(ptr noundef nonnull align 8 dereferenceable(72) %0) #0 comdat align 2 {
  %2 = alloca ptr, align 8
  store ptr %0, ptr %2, align 8
  %3 = load ptr, ptr %2, align 8
  %4 = getelementptr inbounds %class.rcMeshLoaderObj, ptr %3, i32 0, i32 3
  %5 = load ptr, ptr %4, align 8
  ret ptr %5
}

; Function Attrs: mustprogress nounwind uwtable
define linkonce_odr dso_local noundef i32 @_ZNK15rcMeshLoaderObj12getVertCountEv(ptr noundef nonnull align 8 dereferenceable(72) %0) #0 comdat align 2 {
  %2 = alloca ptr, align 8
  store ptr %0, ptr %2, align 8
  %3 = load ptr, ptr %2, align 8
  %4 = getelementptr inbounds %class.rcMeshLoaderObj, ptr %3, i32 0, i32 5
  %5 = load i32, ptr %4, align 8
  ret i32 %5
}

; Function Attrs: mustprogress nounwind uwtable
define linkonce_odr dso_local noundef ptr @_ZNK15rcMeshLoaderObj8getVertsEv(ptr noundef nonnull align 8 dereferenceable(72) %0) #0 comdat align 2 {
  %2 = alloca ptr, align 8
  store ptr %0, ptr %2, align 8
  %3 = load ptr, ptr %2, align 8
  %4 = getelementptr inbounds %class.rcMeshLoaderObj, ptr %3, i32 0, i32 2
  %5 = load ptr, ptr %4, align 8
  ret ptr %5
}

; Function Attrs: mustprogress nounwind uwtable
define linkonce_odr dso_local noundef ptr @_ZNK9InputGeom7getMeshEv(ptr noundef nonnull align 8 dereferenceable(50312) %0) #0 comdat align 2 {
  %2 = alloca ptr, align 8
  store ptr %0, ptr %2, align 8
  %3 = load ptr, ptr %2, align 8
  %4 = getelementptr inbounds %class.InputGeom, ptr %3, i32 0, i32 1
  %5 = load ptr, ptr %4, align 8
  ret ptr %5
}

; Function Attrs: mustprogress uwtable
define dso_local void @_ZN6Sample12handleRenderEv(ptr noundef nonnull align 8 dereferenceable(200) %0) unnamed_addr #2 align 2 {
  %2 = alloca ptr, align 8
  %3 = alloca ptr, align 8
  %4 = alloca ptr, align 8
  store ptr %0, ptr %2, align 8
  %5 = load ptr, ptr %2, align 8
  %6 = getelementptr inbounds %class.Sample, ptr %5, i32 0, i32 1
  %7 = load ptr, ptr %6, align 8
  %8 = icmp ne ptr %7, null
  br i1 %8, label %10, label %9

9:                                                ; preds = %1
  br label %58

10:                                               ; preds = %1
  %11 = getelementptr inbounds %class.Sample, ptr %5, i32 0, i32 26
  %12 = getelementptr inbounds %class.Sample, ptr %5, i32 0, i32 1
  %13 = load ptr, ptr %12, align 8
  %14 = call noundef ptr @_ZNK9InputGeom7getMeshEv(ptr noundef nonnull align 8 dereferenceable(50312) %13)
  %15 = call noundef ptr @_ZNK15rcMeshLoaderObj8getVertsEv(ptr noundef nonnull align 8 dereferenceable(72) %14)
  %16 = getelementptr inbounds %class.Sample, ptr %5, i32 0, i32 1
  %17 = load ptr, ptr %16, align 8
  %18 = call noundef ptr @_ZNK9InputGeom7getMeshEv(ptr noundef nonnull align 8 dereferenceable(50312) %17)
  %19 = call noundef i32 @_ZNK15rcMeshLoaderObj12getVertCountEv(ptr noundef nonnull align 8 dereferenceable(72) %18)
  %20 = getelementptr inbounds %class.Sample, ptr %5, i32 0, i32 1
  %21 = load ptr, ptr %20, align 8
  %22 = call noundef ptr @_ZNK9InputGeom7getMeshEv(ptr noundef nonnull align 8 dereferenceable(50312) %21)
  %23 = call noundef ptr @_ZNK15rcMeshLoaderObj7getTrisEv(ptr noundef nonnull align 8 dereferenceable(72) %22)
  %24 = getelementptr inbounds %class.Sample, ptr %5, i32 0, i32 1
  %25 = load ptr, ptr %24, align 8
  %26 = call noundef ptr @_ZNK9InputGeom7getMeshEv(ptr noundef nonnull align 8 dereferenceable(50312) %25)
  %27 = call noundef ptr @_ZNK15rcMeshLoaderObj10getNormalsEv(ptr noundef nonnull align 8 dereferenceable(72) %26)
  %28 = getelementptr inbounds %class.Sample, ptr %5, i32 0, i32 1
  %29 = load ptr, ptr %28, align 8
  %30 = call noundef ptr @_ZNK9InputGeom7getMeshEv(ptr noundef nonnull align 8 dereferenceable(50312) %29)
  %31 = call noundef i32 @_ZNK15rcMeshLoaderObj11getTriCountEv(ptr noundef nonnull align 8 dereferenceable(72) %30)
  call void @_Z18duDebugDrawTriMeshP11duDebugDrawPKfiPKiS2_iPKhf(ptr noundef %11, ptr noundef %15, i32 noundef %19, ptr noundef %23, ptr noundef %27, i32 noundef %31, ptr noundef null, float noundef 1.000000e+00)
  %32 = getelementptr inbounds %class.Sample, ptr %5, i32 0, i32 1
  %33 = load ptr, ptr %32, align 8
  %34 = call noundef ptr @_ZNK9InputGeom16getMeshBoundsMinEv(ptr noundef nonnull align 8 dereferenceable(50312) %33)
  store ptr %34, ptr %3, align 8
  %35 = getelementptr inbounds %class.Sample, ptr %5, i32 0, i32 1
  %36 = load ptr, ptr %35, align 8
  %37 = call noundef ptr @_ZNK9InputGeom16getMeshBoundsMaxEv(ptr noundef nonnull align 8 dereferenceable(50312) %36)
  store ptr %37, ptr %4, align 8
  %38 = getelementptr inbounds %class.Sample, ptr %5, i32 0, i32 26
  %39 = load ptr, ptr %3, align 8
  %40 = getelementptr inbounds float, ptr %39, i64 0
  %41 = load float, ptr %40, align 4
  %42 = load ptr, ptr %3, align 8
  %43 = getelementptr inbounds float, ptr %42, i64 1
  %44 = load float, ptr %43, align 4
  %45 = load ptr, ptr %3, align 8
  %46 = getelementptr inbounds float, ptr %45, i64 2
  %47 = load float, ptr %46, align 4
  %48 = load ptr, ptr %4, align 8
  %49 = getelementptr inbounds float, ptr %48, i64 0
  %50 = load float, ptr %49, align 4
  %51 = load ptr, ptr %4, align 8
  %52 = getelementptr inbounds float, ptr %51, i64 1
  %53 = load float, ptr %52, align 4
  %54 = load ptr, ptr %4, align 8
  %55 = getelementptr inbounds float, ptr %54, i64 2
  %56 = load float, ptr %55, align 4
  %57 = call noundef i32 @_Z6duRGBAiiii(i32 noundef 255, i32 noundef 255, i32 noundef 255, i32 noundef 128)
  call void @_Z18duDebugDrawBoxWireP11duDebugDrawffffffjf(ptr noundef %38, float noundef %41, float noundef %44, float noundef %47, float noundef %50, float noundef %53, float noundef %56, i32 noundef %57, float noundef 1.000000e+00)
  br label %58

58:                                               ; preds = %10, %9
  ret void
}