; Function Attrs: mustprogress uwtable
define dso_local void @_ZN6Sample12handleRenderEv(ptr noundef nonnull align 8 dereferenceable(200) %0) unnamed_addr #3 align 2 {
  %2 = getelementptr inbounds i8, ptr %0, i64 8
  %3 = load ptr, ptr %2, align 8
  %.not = icmp eq ptr %3, null
  br i1 %.not, label %31, label %4

4:                                                ; preds = %1
  %5 = getelementptr inbounds i8, ptr %0, i64 192
  %6 = getelementptr inbounds i8, ptr %3, i64 8
  %7 = load ptr, ptr %6, align 8
  %8 = getelementptr inbounds i8, ptr %7, i64 40
  %9 = load ptr, ptr %8, align 8
  %10 = getelementptr inbounds i8, ptr %7, i64 64
  %11 = load i32, ptr %10, align 8
  %12 = getelementptr inbounds i8, ptr %7, i64 48
  %13 = load ptr, ptr %12, align 8
  %14 = getelementptr inbounds i8, ptr %7, i64 56
  %15 = load ptr, ptr %14, align 8
  %16 = getelementptr inbounds i8, ptr %7, i64 68
  %17 = load i32, ptr %16, align 4
  tail call void @_Z18duDebugDrawTriMeshP11duDebugDrawPKfiPKiS2_iPKhf(ptr noundef nonnull %5, ptr noundef %9, i32 noundef %11, ptr noundef %13, ptr noundef %15, i32 noundef %17, ptr noundef null, float noundef 1.000000e+00)
  %18 = load ptr, ptr %2, align 8
  %19 = getelementptr inbounds i8, ptr %18, i64 16
  %20 = getelementptr inbounds i8, ptr %18, i64 28
  %21 = load float, ptr %19, align 4
  %22 = getelementptr inbounds i8, ptr %18, i64 20
  %23 = load float, ptr %22, align 4
  %24 = getelementptr inbounds i8, ptr %18, i64 24
  %25 = load float, ptr %24, align 4
  %26 = load float, ptr %20, align 4
  %27 = getelementptr inbounds i8, ptr %18, i64 32
  %28 = load float, ptr %27, align 4
  %29 = getelementptr inbounds i8, ptr %18, i64 36
  %30 = load float, ptr %29, align 4
  tail call void @_Z18duDebugDrawBoxWireP11duDebugDrawffffffjf(ptr noundef nonnull %5, float noundef %21, float noundef %23, float noundef %25, float noundef %26, float noundef %28, float noundef %30, i32 noundef -2130706433, float noundef 1.000000e+00)
  br label %31

31:                                               ; preds = %1, %4
  ret void
}